; ModuleID = '61/547.c'
source_filename = "61/547.c"
target datalayout = "e-m:e-p270:32:32-p271:32:32-p272:64:64-i64:64-f80:128-n8:16:32:64-S128"
target triple = "x86_64-pc-linux-gnu"

@.str = private unnamed_addr constant [3 x i8] c"%d\00", align 1
@.str.1 = private unnamed_addr constant [3 x i8] c"1\0A\00", align 1
@.str.2 = private unnamed_addr constant [4 x i8] c"%d\0A\00", align 1

; Function Attrs: noinline nounwind uwtable
define dso_local i32 @main() #0 {
  %1 = alloca i32, align 4
  %2 = alloca i32, align 4
  %3 = alloca i32, align 4
  %4 = alloca i32, align 4
  %5 = alloca i32, align 4
  %6 = alloca i32, align 4
  %7 = alloca i32, align 4
  store i32 0, i32* %1, align 4
  %8 = call i32 (i8*, ...) @__isoc99_scanf(i8* getelementptr inbounds ([3 x i8], [3 x i8]* @.str, i64 0, i64 0), i32* %2)
  br label %9

9:                                                ; preds = %39, %0
  %10 = load i32, i32* %2, align 4
  %11 = add nsw i32 %10, -1
  store i32 %11, i32* %2, align 4
  %12 = icmp ne i32 %10, 0
  br i1 %12, label %13, label %40

13:                                               ; preds = %9
  %14 = call i32 (i8*, ...) @__isoc99_scanf(i8* getelementptr inbounds ([3 x i8], [3 x i8]* @.str, i64 0, i64 0), i32* %3)
  %15 = load i32, i32* %3, align 4
  %16 = icmp eq i32 %15, 1
  br i1 %16, label %20, label %17

17:                                               ; preds = %13
  %18 = load i32, i32* %3, align 4
  %19 = icmp eq i32 %18, 2
  br i1 %19, label %20, label %22

20:                                               ; preds = %17, %13
  %21 = call i32 (i8*, ...) @printf(i8* getelementptr inbounds ([3 x i8], [3 x i8]* @.str.1, i64 0, i64 0))
  br label %39

22:                                               ; preds = %17
  store i32 1, i32* %5, align 4
  store i32 1, i32* %6, align 4
  store i32 2, i32* %4, align 4
  br label %23

23:                                               ; preds = %33, %22
  %24 = load i32, i32* %4, align 4
  %25 = load i32, i32* %3, align 4
  %26 = icmp slt i32 %24, %25
  br i1 %26, label %27, label %36

27:                                               ; preds = %23
  %28 = load i32, i32* %5, align 4
  %29 = load i32, i32* %6, align 4
  %30 = add nsw i32 %28, %29
  store i32 %30, i32* %7, align 4
  %31 = load i32, i32* %6, align 4
  store i32 %31, i32* %5, align 4
  %32 = load i32, i32* %7, align 4
  store i32 %32, i32* %6, align 4
  br label %33

33:                                               ; preds = %27
  %34 = load i32, i32* %4, align 4
  %35 = add nsw i32 %34, 1
  store i32 %35, i32* %4, align 4
  br label %23

36:                                               ; preds = %23
  %37 = load i32, i32* %7, align 4
  %38 = call i32 (i8*, ...) @printf(i8* getelementptr inbounds ([4 x i8], [4 x i8]* @.str.2, i64 0, i64 0), i32 %37)
  br label %39

39:                                               ; preds = %36, %20
  br label %9

40:                                               ; preds = %9
  ret i32 0
}

declare dso_local i32 @__isoc99_scanf(i8*, ...) #1

declare dso_local i32 @printf(i8*, ...) #1


!llvm.module.flags = !{!0}
!llvm.ident = !{!1}

!0 = !{i32 1, !"wchar_size", i32 4}
!1 = !{!"clang version 10.0.0-4ubuntu1 "}
