; ModuleID = 'source-C-CXX/60/547.c'
source_filename = "source-C-CXX/60/547.c"
target datalayout = "e-m:e-p270:32:32-p271:32:32-p272:64:64-i64:64-f80:128-n8:16:32:64-S128"
target triple = "x86_64-pc-linux-gnu"

@.str = private unnamed_addr constant [3 x i8] c"%d\00", align 1
@.str.2 = private unnamed_addr constant [4 x i8] c"%d\0A\00", align 1
@str = private unnamed_addr constant [2 x i8] c"1\00", align 1

; Function Attrs: nofree nounwind sspstrong uwtable
define dso_local i32 @main() local_unnamed_addr #0 {
  %1 = alloca i32, align 4
  %2 = alloca i32, align 4
  %3 = bitcast i32* %1 to i8*
  call void @llvm.lifetime.start.p0i8(i64 4, i8* nonnull %3) #4
  %4 = bitcast i32* %2 to i8*
  call void @llvm.lifetime.start.p0i8(i64 4, i8* nonnull %4) #4
  %5 = call i32 (i8*, ...) @__isoc99_scanf(i8* getelementptr inbounds ([3 x i8], [3 x i8]* @.str, i64 0, i64 0), i32* nonnull %1)
  %6 = load i32, i32* %1, align 4, !tbaa !5
  %7 = add nsw i32 %6, -1
  store i32 %7, i32* %1, align 4, !tbaa !5
  %8 = icmp eq i32 %6, 0
  br i1 %8, label %60, label %9

9:                                                ; preds = %0, %55
  %10 = phi i32 [ %56, %55 ], [ undef, %0 ]
  %11 = call i32 (i8*, ...) @__isoc99_scanf(i8* getelementptr inbounds ([3 x i8], [3 x i8]* @.str, i64 0, i64 0), i32* nonnull %2)
  %12 = load i32, i32* %2, align 4, !tbaa !5
  %13 = add i32 %12, -1
  %14 = icmp ult i32 %13, 2
  br i1 %14, label %24, label %15

15:                                               ; preds = %9
  %16 = icmp sgt i32 %12, 2
  br i1 %16, label %17, label %52

17:                                               ; preds = %15
  %18 = add i32 %12, -2
  %19 = add i32 %12, -3
  %20 = and i32 %18, 7
  %21 = icmp ult i32 %19, 7
  br i1 %21, label %40, label %22

22:                                               ; preds = %17
  %23 = and i32 %18, -8
  br label %26

24:                                               ; preds = %9
  %25 = call i32 @puts(i8* nonnull dereferenceable(1) getelementptr inbounds ([2 x i8], [2 x i8]* @str, i64 0, i64 0))
  br label %55

26:                                               ; preds = %26, %22
  %27 = phi i32 [ 1, %22 ], [ %37, %26 ]
  %28 = phi i32 [ 1, %22 ], [ %36, %26 ]
  %29 = phi i32 [ %23, %22 ], [ %38, %26 ]
  %30 = add nsw i32 %27, %28
  %31 = add nsw i32 %30, %27
  %32 = add nsw i32 %31, %30
  %33 = add nsw i32 %32, %31
  %34 = add nsw i32 %33, %32
  %35 = add nsw i32 %34, %33
  %36 = add nsw i32 %35, %34
  %37 = add nsw i32 %36, %35
  %38 = add i32 %29, -8
  %39 = icmp eq i32 %38, 0
  br i1 %39, label %40, label %26, !llvm.loop !9

40:                                               ; preds = %26, %17
  %41 = phi i32 [ undef, %17 ], [ %37, %26 ]
  %42 = phi i32 [ 1, %17 ], [ %37, %26 ]
  %43 = phi i32 [ 1, %17 ], [ %36, %26 ]
  %44 = icmp eq i32 %20, 0
  br i1 %44, label %52, label %45

45:                                               ; preds = %40, %45
  %46 = phi i32 [ %49, %45 ], [ %42, %40 ]
  %47 = phi i32 [ %46, %45 ], [ %43, %40 ]
  %48 = phi i32 [ %50, %45 ], [ %20, %40 ]
  %49 = add nsw i32 %46, %47
  %50 = add i32 %48, -1
  %51 = icmp eq i32 %50, 0
  br i1 %51, label %52, label %45, !llvm.loop !11

52:                                               ; preds = %40, %45, %15
  %53 = phi i32 [ %10, %15 ], [ %41, %40 ], [ %49, %45 ]
  %54 = call i32 (i8*, ...) @printf(i8* nonnull dereferenceable(1) getelementptr inbounds ([4 x i8], [4 x i8]* @.str.2, i64 0, i64 0), i32 %53)
  br label %55

55:                                               ; preds = %52, %24
  %56 = phi i32 [ %10, %24 ], [ %53, %52 ]
  %57 = load i32, i32* %1, align 4, !tbaa !5
  %58 = add nsw i32 %57, -1
  store i32 %58, i32* %1, align 4, !tbaa !5
  %59 = icmp eq i32 %57, 0
  br i1 %59, label %60, label %9, !llvm.loop !13

60:                                               ; preds = %55, %0
  call void @llvm.lifetime.end.p0i8(i64 4, i8* nonnull %4) #4
  call void @llvm.lifetime.end.p0i8(i64 4, i8* nonnull %3) #4
  ret i32 0
}

; Function Attrs: argmemonly mustprogress nofree nosync nounwind willreturn
declare void @llvm.lifetime.start.p0i8(i64 immarg, i8* nocapture) #1

; Function Attrs: nofree nounwind
declare noundef i32 @__isoc99_scanf(i8* nocapture noundef readonly, ...) local_unnamed_addr #2

; Function Attrs: nofree nounwind
declare noundef i32 @printf(i8* nocapture noundef readonly, ...) local_unnamed_addr #2

; Function Attrs: argmemonly mustprogress nofree nosync nounwind willreturn
declare void @llvm.lifetime.end.p0i8(i64 immarg, i8* nocapture) #1

; Function Attrs: nofree nounwind
declare noundef i32 @puts(i8* nocapture noundef readonly) local_unnamed_addr #3


!llvm.module.flags = !{!0, !1, !2, !3}
!llvm.ident = !{!4}

!0 = !{i32 1, !"wchar_size", i32 4}
!1 = !{i32 7, !"PIC Level", i32 2}
!2 = !{i32 7, !"PIE Level", i32 2}
!3 = !{i32 7, !"uwtable", i32 1}
!4 = !{!"clang version 13.0.0"}
!5 = !{!6, !6, i64 0}
!6 = !{!"int", !7, i64 0}
!7 = !{!"omnipotent char", !8, i64 0}
!8 = !{!"Simple C/C++ TBAA"}
!9 = distinct !{!9, !10}
!10 = !{!"llvm.loop.mustprogress"}
!11 = distinct !{!11, !12}
!12 = !{!"llvm.loop.unroll.disable"}
!13 = distinct !{!13, !10}
